target datalayout = "e-m:e-p270:32:32-p271:32:32-p272:64:64-i64:64-i128:128-f80:128-n8:16:32:64-S128"
target triple = "x86_64-unknown-linux-gnu"

%struct.BusClass = type { %struct.ObjectClass, ptr, ptr, ptr, ptr, ptr, ptr, ptr, i32, i32 }
%struct.ObjectClass = type { ptr, ptr, [4 x ptr], [4 x ptr], ptr, ptr }

@.str.9 = private unnamed_addr constant [101 x i8] c"/home/dtcxzyw/WorkSpace/Projects/compilers/llvm-opt-benchmark/bench/qemu/qemu/include/hw/qdev-core.h\00", align 1
@.str.10 = private unnamed_addr constant [4 x i8] c"bus\00", align 1
@__func__.BUS_CLASS = private unnamed_addr constant [10 x i8] c"BUS_CLASS\00", align 1

; Function Attrs: nounwind sspstrong uwtable
define internal ptr @BUS_CLASS(ptr noundef %klass) #0 {
entry:
  %klass.addr = alloca ptr, align 8
  store ptr %klass, ptr %klass.addr, align 8
  %0 = load ptr, ptr %klass.addr, align 8
  %call = call ptr @object_class_dynamic_cast_assert(ptr noundef %0, ptr noundef @.str.10, ptr noundef @.str.9, i32 noundef 316, ptr noundef @__func__.BUS_CLASS)
  ret ptr %call
}

; Function Attrs: nounwind sspstrong uwtable
define internal void @virtio_bus_class_init(ptr noundef %klass, ptr noundef %data) #0 {
entry:
  %klass.addr = alloca ptr, align 8
  %data.addr = alloca ptr, align 8
  %bus_class = alloca ptr, align 8
  store ptr %klass, ptr %klass.addr, align 8
  store ptr %data, ptr %data.addr, align 8
  %0 = load ptr, ptr %klass.addr, align 8
  %call = call ptr @BUS_CLASS(ptr noundef %0)
  store ptr %call, ptr %bus_class, align 8
  %1 = load ptr, ptr %bus_class, align 8
  %get_dev_path = getelementptr inbounds %struct.BusClass, ptr %1, i32 0, i32 2
  store ptr @virtio_bus_get_dev_path, ptr %get_dev_path, align 8
  %2 = load ptr, ptr %bus_class, align 8
  %get_fw_dev_path = getelementptr inbounds %struct.BusClass, ptr %2, i32 0, i32 3
  store ptr @virtio_bus_get_fw_dev_path, ptr %get_fw_dev_path, align 8
  ret void
}