; Function Attrs: nounwind sspstrong uwtable
define internal void @virtio_bus_class_init(ptr noundef %klass, ptr readnone captures(none) %data) #0 {
entry:
  %call.i = tail call ptr @object_class_dynamic_cast_assert(ptr noundef %klass, ptr noundef nonnull @.str.10, ptr noundef nonnull @.str.9, i32 noundef 316, ptr noundef nonnull @__func__.BUS_CLASS) #5
  %get_dev_path = getelementptr inbounds nuw i8, ptr %call.i, i64 104
  store ptr @virtio_bus_get_dev_path, ptr %get_dev_path, align 8
  %get_fw_dev_path = getelementptr inbounds nuw i8, ptr %call.i, i64 112
  store ptr @virtio_bus_get_fw_dev_path, ptr %get_fw_dev_path, align 8
  ret void
}